target datalayout = "e-m:e-p270:32:32-p271:32:32-p272:64:64-i64:64-i128:128-f80:128-n8:16:32:64-S128"
target triple = "x86_64-pc-linux-gnu"

%struct.notes_tree = type { ptr, ptr, ptr, ptr, ptr, ptr, i32, i32 }
%struct.option = type { i32, i32, ptr, ptr, ptr, ptr, i32, ptr, i64, ptr, i64, ptr }
%struct.object_id = type { [32 x i8], i32 }

@.str.3 = private unnamed_addr constant [5 x i8] c"list\00", align 1
@git_notes_list_usage = internal constant [2 x ptr] [ptr @.str.18, ptr null], align 16
@.str.15 = private unnamed_addr constant [19 x i8] c"too many arguments\00", align 1
@the_repository = external global ptr, align 8
@.str.16 = private unnamed_addr constant [39 x i8] c"failed to resolve '%s' as a valid ref.\00", align 1
@.str.17 = private unnamed_addr constant [29 x i8] c"no note found for object %s.\00", align 1
@default_notes_tree = external global %struct.notes_tree, align 8
@.str.19 = private unnamed_addr constant [12 x i8] c"refs/notes/\00", align 1
@.str.20 = private unnamed_addr constant [52 x i8] c"refusing to %s notes in %s (outside of refs/notes/)\00", align 1

; Function Attrs: nounwind uwtable
define internal ptr @init_notes_check(ptr noundef %0, i32 noundef %1) #0 {
  %3 = alloca ptr, align 8
  %4 = alloca i32, align 4
  %5 = alloca ptr, align 8
  %6 = alloca ptr, align 8
  store ptr %0, ptr %3, align 8, !tbaa !11
  store i32 %1, ptr %4, align 4, !tbaa !4
  call void @llvm.lifetime.start.p0(i64 8, ptr %5) #11
  call void @llvm.lifetime.start.p0(i64 8, ptr %6) #11
  %7 = load i32, ptr %4, align 4, !tbaa !4
  call void @init_notes(ptr noundef null, ptr noundef null, ptr noundef null, i32 noundef %7)
  store ptr @default_notes_tree, ptr %5, align 8, !tbaa !32
  %8 = load i32, ptr %4, align 4, !tbaa !4
  %9 = and i32 %8, 2
  %10 = icmp ne i32 %9, 0
  br i1 %10, label %11, label %15

11:                                               ; preds = %2
  %12 = load ptr, ptr %5, align 8, !tbaa !32
  %13 = getelementptr inbounds nuw %struct.notes_tree, ptr %12, i32 0, i32 4
  %14 = load ptr, ptr %13, align 8, !tbaa !61
  br label %19

15:                                               ; preds = %2
  %16 = load ptr, ptr %5, align 8, !tbaa !32
  %17 = getelementptr inbounds nuw %struct.notes_tree, ptr %16, i32 0, i32 3
  %18 = load ptr, ptr %17, align 8, !tbaa !65
  br label %19

19:                                               ; preds = %15, %11
  %20 = phi ptr [ %14, %11 ], [ %18, %15 ]
  store ptr %20, ptr %6, align 8, !tbaa !11
  %21 = load ptr, ptr %6, align 8, !tbaa !11
  %22 = call i32 @starts_with(ptr noundef %21, ptr noundef @.str.19)
  %23 = icmp ne i32 %22, 0
  br i1 %23, label %28, label %24

24:                                               ; preds = %19
  %25 = call ptr @_(ptr noundef @.str.20)
  %26 = load ptr, ptr %3, align 8, !tbaa !11
  %27 = load ptr, ptr %6, align 8, !tbaa !11
  call void (ptr, ...) @die(ptr noundef %25, ptr noundef %26, ptr noundef %27) #12
  unreachable

28:                                               ; preds = %19
  %29 = load ptr, ptr %5, align 8, !tbaa !32
  call void @llvm.lifetime.end.p0(i64 8, ptr %6) #11
  call void @llvm.lifetime.end.p0(i64 8, ptr %5) #11
  ret ptr %29
}

; Function Attrs: inlinehint nounwind uwtable
define internal i32 @const_error() #3 {
  ret i32 -1
}

; Function Attrs: nounwind uwtable
define internal i32 @list(i32 noundef %0, ptr noundef %1, ptr noundef %2, ptr noundef %3) #0 {
  %5 = alloca i32, align 4
  %6 = alloca ptr, align 8
  %7 = alloca ptr, align 8
  %8 = alloca ptr, align 8
  %9 = alloca ptr, align 8
  %10 = alloca %struct.object_id, align 4
  %11 = alloca ptr, align 8
  %12 = alloca i32, align 4
  %13 = alloca [1 x %struct.option], align 16
  store i32 %0, ptr %5, align 4, !tbaa !4
  store ptr %1, ptr %6, align 8, !tbaa !8
  store ptr %2, ptr %7, align 8, !tbaa !11
  store ptr %3, ptr %8, align 8, !tbaa !13
  call void @llvm.lifetime.start.p0(i64 8, ptr %9) #11
  call void @llvm.lifetime.start.p0(i64 36, ptr %10) #11
  call void @llvm.lifetime.start.p0(i64 8, ptr %11) #11
  call void @llvm.lifetime.start.p0(i64 4, ptr %12) #11
  store i32 -1, ptr %12, align 4, !tbaa !4
  call void @llvm.lifetime.start.p0(i64 88, ptr %13) #11
  call void @llvm.memset.p0.i64(ptr align 16 %13, i8 0, i64 88, i1 false)
  %14 = load i32, ptr %5, align 4, !tbaa !4
  %15 = icmp ne i32 %14, 0
  br i1 %15, label %16, label %22

16:                                               ; preds = %4
  %17 = load i32, ptr %5, align 4, !tbaa !4
  %18 = load ptr, ptr %6, align 8, !tbaa !8
  %19 = load ptr, ptr %7, align 8, !tbaa !11
  %20 = getelementptr inbounds [1 x %struct.option], ptr %13, i64 0, i64 0
  %21 = call i32 @parse_options(i32 noundef %17, ptr noundef %18, ptr noundef %19, ptr noundef %20, ptr noundef @git_notes_list_usage, i32 noundef 0)
  store i32 %21, ptr %5, align 4, !tbaa !4
  br label %22

22:                                               ; preds = %16, %4
  %23 = load i32, ptr %5, align 4, !tbaa !4
  %24 = icmp slt i32 1, %23
  br i1 %24, label %25, label %30

25:                                               ; preds = %22
  %26 = call ptr @_(ptr noundef @.str.15)
  %27 = call i32 (ptr, ...) @error(ptr noundef %26)
  %28 = call i32 @const_error()
  %29 = getelementptr inbounds [1 x %struct.option], ptr %13, i64 0, i64 0
  call void @usage_with_options(ptr noundef @git_notes_list_usage, ptr noundef %29) #12
  unreachable

30:                                               ; preds = %22
  %31 = call ptr @init_notes_check(ptr noundef @.str.3, i32 noundef 0)
  store ptr %31, ptr %9, align 8, !tbaa !32
  %32 = load i32, ptr %5, align 4, !tbaa !4
  %33 = icmp ne i32 %32, 0
  br i1 %33, label %34, label %61

34:                                               ; preds = %30
  %35 = load ptr, ptr @the_repository, align 8, !tbaa !13
  %36 = load ptr, ptr %6, align 8, !tbaa !8
  %37 = getelementptr inbounds ptr, ptr %36, i64 0
  %38 = load ptr, ptr %37, align 8, !tbaa !11
  %39 = call i32 @repo_get_oid(ptr noundef %35, ptr noundef %38, ptr noundef %10)
  %40 = icmp ne i32 %39, 0
  br i1 %40, label %41, label %46

41:                                               ; preds = %34
  %42 = call ptr @_(ptr noundef @.str.16)
  %43 = load ptr, ptr %6, align 8, !tbaa !8
  %44 = getelementptr inbounds ptr, ptr %43, i64 0
  %45 = load ptr, ptr %44, align 8, !tbaa !11
  call void (ptr, ...) @die(ptr noundef %42, ptr noundef %45) #12
  unreachable

46:                                               ; preds = %34
  %47 = load ptr, ptr %9, align 8, !tbaa !32
  %48 = call ptr @get_note(ptr noundef %47, ptr noundef %10)
  store ptr %48, ptr %11, align 8, !tbaa !34
  %49 = load ptr, ptr %11, align 8, !tbaa !34
  %50 = icmp ne ptr %49, null
  br i1 %50, label %51, label %55

51:                                               ; preds = %46
  %52 = load ptr, ptr %11, align 8, !tbaa !34
  %53 = call ptr @oid_to_hex(ptr noundef %52)
  %54 = call i32 @puts(ptr noundef %53)
  store i32 0, ptr %12, align 4, !tbaa !4
  br label %60

55:                                               ; preds = %46
  %56 = call ptr @_(ptr noundef @.str.17)
  %57 = call ptr @oid_to_hex(ptr noundef %10)
  %58 = call i32 (ptr, ...) @error(ptr noundef %56, ptr noundef %57)
  %59 = call i32 @const_error()
  store i32 %59, ptr %12, align 4, !tbaa !4
  br label %60

60:                                               ; preds = %55, %51
  br label %64

61:                                               ; preds = %30
  %62 = load ptr, ptr %9, align 8, !tbaa !32
  %63 = call i32 @for_each_note(ptr noundef %62, i32 noundef 0, ptr noundef @list_each_note, ptr noundef null)
  store i32 %63, ptr %12, align 4, !tbaa !4
  br label %64

64:                                               ; preds = %61, %60
  %65 = load ptr, ptr %9, align 8, !tbaa !32
  call void @free_notes(ptr noundef %65)
  %66 = load i32, ptr %12, align 4, !tbaa !4
  call void @llvm.lifetime.end.p0(i64 88, ptr %13) #11
  call void @llvm.lifetime.end.p0(i64 4, ptr %12) #11
  call void @llvm.lifetime.end.p0(i64 8, ptr %11) #11
  call void @llvm.lifetime.end.p0(i64 36, ptr %10) #11
  call void @llvm.lifetime.end.p0(i64 8, ptr %9) #11
  ret i32 %66
}