; Function Attrs: nounwind uwtable
define internal i32 @list(i32 noundef %0, ptr noundef %1, ptr noundef %2, ptr readnone captures(none) %3) #0 {
  %5 = alloca %struct.object_id, align 4
  %6 = alloca [1 x %struct.option], align 16
  call void @llvm.lifetime.start.p0(i64 36, ptr nonnull %5) #16
  call void @llvm.lifetime.start.p0(i64 88, ptr nonnull %6) #16
  call void @llvm.memset.p0.i64(ptr noundef nonnull align 16 dereferenceable(88) %6, i8 0, i64 88, i1 false)
  %.not = icmp eq i32 %0, 0
  br i1 %.not, label %.thread, label %7

7:                                                ; preds = %4
  %8 = call i32 @parse_options(i32 noundef %0, ptr noundef %1, ptr noundef %2, ptr noundef nonnull %6, ptr noundef nonnull @git_notes_list_usage, i32 noundef 0) #16
  %9 = icmp sgt i32 %8, 1
  br i1 %9, label %10, label %.thread

10:                                               ; preds = %7
  %11 = call fastcc ptr @_(ptr noundef nonnull @.str.15)
  %12 = call i32 (ptr, ...) @error(ptr noundef %11) #16
  call void @usage_with_options(ptr noundef nonnull @git_notes_list_usage, ptr noundef nonnull %6) #17
  unreachable

.thread:                                          ; preds = %4, %7
  %.01320 = phi i32 [ %8, %7 ], [ 0, %4 ]
  call void @init_notes(ptr noundef null, ptr noundef null, ptr noundef null, i32 noundef 0) #16
  %.val.i = load ptr, ptr getelementptr inbounds nuw (i8, ptr @default_notes_tree, i64 24), align 8
  %13 = call i32 @starts_with(ptr noundef %.val.i, ptr noundef nonnull @.str.19) #16
  %.not7.i = icmp eq i32 %13, 0
  br i1 %.not7.i, label %14, label %init_notes_check.exit

14:                                               ; preds = %.thread
  %15 = call fastcc ptr @_(ptr noundef nonnull @.str.20)
  call void (ptr, ...) @die(ptr noundef %15, ptr noundef nonnull @.str.3, ptr noundef %.val.i) #17
  unreachable

init_notes_check.exit:                            ; preds = %.thread
  %.not16 = icmp eq i32 %.01320, 0
  br i1 %.not16, label %34, label %16

16:                                               ; preds = %init_notes_check.exit
  %17 = load ptr, ptr @the_repository, align 8, !tbaa !20
  %18 = load ptr, ptr %1, align 8, !tbaa !4
  %19 = call i32 @repo_get_oid(ptr noundef %17, ptr noundef %18, ptr noundef nonnull %5) #16
  %.not17 = icmp eq i32 %19, 0
  br i1 %.not17, label %23, label %20

20:                                               ; preds = %16
  %21 = call fastcc ptr @_(ptr noundef nonnull @.str.16)
  %22 = load ptr, ptr %1, align 8, !tbaa !4
  call void (ptr, ...) @die(ptr noundef %21, ptr noundef %22) #17
  unreachable

23:                                               ; preds = %16
  %24 = call ptr @get_note(ptr noundef nonnull @default_notes_tree, ptr noundef nonnull %5) #16
  %.not18 = icmp eq ptr %24, null
  br i1 %.not18, label %28, label %25

25:                                               ; preds = %23
  %26 = call ptr @oid_to_hex(ptr noundef nonnull %24) #16
  %27 = call i32 @puts(ptr noundef nonnull dereferenceable(1) %26)
  br label %36

28:                                               ; preds = %23
  %29 = load i32, ptr @git_gettext_enabled, align 4, !tbaa !24
  %.not4.i = icmp eq i32 %29, 0
  br i1 %.not4.i, label %_.exit, label %30

30:                                               ; preds = %28
  %31 = call ptr @dcgettext(ptr noundef null, ptr noundef nonnull @.str.17, i32 noundef 5) #16
  br label %_.exit

_.exit:                                           ; preds = %28, %30
  %.0.i = phi ptr [ %31, %30 ], [ @.str.17, %28 ]
  %32 = call ptr @oid_to_hex(ptr noundef nonnull %5) #16
  %33 = call i32 (ptr, ...) @error(ptr noundef %.0.i, ptr noundef %32) #16
  br label %36

34:                                               ; preds = %init_notes_check.exit
  %35 = call i32 @for_each_note(ptr noundef nonnull @default_notes_tree, i32 noundef 0, ptr noundef nonnull @list_each_note, ptr noundef null) #16
  br label %36

36:                                               ; preds = %25, %_.exit, %34
  %.0 = phi i32 [ 0, %25 ], [ -1, %_.exit ], [ %35, %34 ]
  call void @free_notes(ptr noundef nonnull @default_notes_tree) #16
  call void @llvm.lifetime.end.p0(i64 88, ptr nonnull %6) #16
  call void @llvm.lifetime.end.p0(i64 36, ptr nonnull %5) #16
  ret i32 %.0
}